; Function Attrs: nounwind uwtable
define internal fastcc ptr @type_generate_ptr(ptr noundef %0, i1 noundef zeroext %1) unnamed_addr #0 {
  br i1 %1, label %3, label %6

3:                                                ; preds = %2
  %4 = getelementptr inbounds i8, ptr %0, i64 8
  %5 = load ptr, ptr %4, align 8
  br label %6

6:                                                ; preds = %3, %2
  %.024 = phi ptr [ %5, %3 ], [ %0, %2 ]
  %7 = getelementptr inbounds i8, ptr %.024, i64 24
  %8 = load ptr, ptr %7, align 8
  %.not = icmp eq ptr %8, null
  br i1 %.not, label %.preheader, label %create_type_cache.exit

.preheader:                                       ; preds = %6, %33
  %9 = phi ptr [ %.pre, %33 ], [ null, %6 ]
  %.01012.i = phi i32 [ %41, %33 ], [ 0, %6 ]
  %.not.i.i = icmp eq ptr %9, null
  br i1 %.not.i.i, label %10, label %13

10:                                               ; preds = %.preheader
  %11 = tail call ptr @calloc_arena(i64 noundef 72) #14
  %12 = getelementptr inbounds i8, ptr %11, i64 4
  store i32 8, ptr %12, align 4
  br label %15

13:                                               ; preds = %.preheader
  %14 = getelementptr inbounds i8, ptr %9, i64 -8
  %.phi.trans.insert.i.i = getelementptr inbounds i8, ptr %9, i64 -4
  %.pre.i.i = load i32, ptr %.phi.trans.insert.i.i, align 4
  br label %15

15:                                               ; preds = %13, %10
  %16 = phi i32 [ %.pre.i.i, %13 ], [ 8, %10 ]
  %.0.i.i = phi ptr [ %14, %13 ], [ %11, %10 ]
  %17 = load i32, ptr %.0.i.i, align 4
  %18 = icmp eq i32 %17, %16
  br i1 %18, label %19, label %33

19:                                               ; preds = %15
  %20 = getelementptr inbounds i8, ptr %.0.i.i, i64 4
  %21 = shl i32 %16, 1
  %22 = zext i32 %21 to i64
  %23 = shl nuw nsw i64 %22, 3
  %24 = or disjoint i64 %23, 8
  %25 = tail call ptr @calloc_arena(i64 noundef %24) #14
  %26 = getelementptr inbounds i8, ptr %25, i64 4
  store i32 %21, ptr %26, align 4
  %27 = load i32, ptr %20, align 4
  %28 = zext i32 %27 to i64
  %29 = shl nuw nsw i64 %28, 3
  %30 = add nuw nsw i64 %29, 8
  tail call void @llvm.memcpy.p0.p0.i64(ptr noundef nonnull align 4 dereferenceable(1) %25, ptr noundef nonnull align 4 dereferenceable(1) %.0.i.i, i64 %30, i1 false)
  %31 = load i32, ptr %26, align 4
  %32 = shl i32 %31, 1
  store i32 %32, ptr %26, align 4
  %.pre18.i.i = load i32, ptr %25, align 4
  br label %33

33:                                               ; preds = %19, %15
  %34 = phi i32 [ %.pre18.i.i, %19 ], [ %17, %15 ]
  %.1.i.i = phi ptr [ %25, %19 ], [ %.0.i.i, %15 ]
  %35 = add i32 %34, 1
  store i32 %35, ptr %.1.i.i, align 4
  %36 = getelementptr inbounds i8, ptr %.1.i.i, i64 8
  store ptr %36, ptr %7, align 8
  %37 = load i32, ptr %.1.i.i, align 4
  %38 = add i32 %37, -1
  %39 = zext i32 %38 to i64
  %40 = getelementptr inbounds ptr, ptr %36, i64 %39
  store ptr null, ptr %40, align 8
  %41 = add nuw nsw i32 %.01012.i, 1
  %exitcond.not.i = icmp eq i32 %41, 6
  %.pre = load ptr, ptr %7, align 8
  br i1 %exitcond.not.i, label %create_type_cache.exit, label %.preheader, !llvm.loop !13

create_type_cache.exit:                           ; preds = %33, %6
  %42 = phi ptr [ %8, %6 ], [ %.pre, %33 ]
  %43 = load ptr, ptr %42, align 8
  %44 = icmp eq ptr %43, null
  br i1 %44, label %45, label %common.ret

45:                                               ; preds = %create_type_cache.exit
  %46 = load i32, ptr %.024, align 8
  %47 = icmp eq i32 %46, 28
  %48 = select i1 %47, i32 20, i32 23
  %49 = getelementptr inbounds i8, ptr %.024, i64 16
  %50 = load ptr, ptr %49, align 8
  %51 = tail call ptr (ptr, ...) @str_printf(ptr noundef nonnull @.str.11, ptr noundef %50) #14
  %52 = tail call ptr @calloc_arena(i64 noundef 80) #14
  store i32 %48, ptr %52, align 8
  %53 = getelementptr inbounds i8, ptr %52, i64 16
  store ptr %51, ptr %53, align 8
  tail call void @global_context_add_type(ptr noundef nonnull %52) #14
  %54 = getelementptr inbounds i8, ptr %52, i64 56
  store ptr %.024, ptr %54, align 8
  %55 = load ptr, ptr %7, align 8
  store ptr %52, ptr %55, align 8
  %56 = getelementptr inbounds i8, ptr %.024, i64 8
  %57 = load ptr, ptr %56, align 8
  %58 = icmp eq ptr %.024, %57
  br i1 %58, label %common.ret.sink.split, label %60

common.ret.sink.split:                            ; preds = %45, %60
  %.sink = phi ptr [ %61, %60 ], [ %52, %45 ]
  %59 = getelementptr inbounds i8, ptr %52, i64 8
  store ptr %.sink, ptr %59, align 8
  br label %common.ret

common.ret:                                       ; preds = %common.ret.sink.split, %create_type_cache.exit
  %common.ret.op = phi ptr [ %43, %create_type_cache.exit ], [ %52, %common.ret.sink.split ]
  ret ptr %common.ret.op

60:                                               ; preds = %45
  %61 = tail call fastcc ptr @type_generate_ptr(ptr noundef %57, i1 noundef zeroext true)
  br label %common.ret.sink.split
}